target datalayout = "e-m:e-p270:32:32-p271:32:32-p272:64:64-i64:64-i128:128-f80:128-n8:16:32:64-S128"
target triple = "x86_64-unknown-linux-gnu"

%"class.Assimp::FBX::Token" = type <{ ptr, ptr, i32, [4 x i8], %union.anon, i32, [4 x i8] }>
%union.anon = type { i64 }

@.str.9 = private unnamed_addr constant [24 x i8] c"expected TOK_DATA token\00", align 1
@.str.10 = private unnamed_addr constant [67 x i8] c"failed to parse ID, unexpected data type, expected L(ong) (binary)\00", align 1
@.str.12 = private unnamed_addr constant [41 x i8] c"expected asterisk before array dimension\00", align 1
@.str.13 = private unnamed_addr constant [45 x i8] c"expected valid integer number after asterisk\00", align 1
@.str.14 = private unnamed_addr constant [19 x i8] c"failed to parse ID\00", align 1

; Function Attrs: mustprogress nounwind uwtable
define internal noundef i64 @_ZN12_GLOBAL__N_19SafeParseImEET_PKcS3_(ptr noundef %data, ptr noundef %end) #0 {
entry:
  %data.addr = alloca ptr, align 8
  %end.addr = alloca ptr, align 8
  %result = alloca i64, align 8
  store ptr %data, ptr %data.addr, align 8
  store ptr %end, ptr %end.addr, align 8
  store i64 0, ptr %result, align 8
  %0 = load ptr, ptr %data.addr, align 8
  call void @llvm.memcpy.p0.p0.i64(ptr align 8 %result, ptr align 1 %0, i64 8, i1 false)
  %1 = load i64, ptr %result, align 8
  ret i64 %1
}

; Function Attrs: mustprogress nounwind uwtable
define linkonce_odr hidden noundef ptr @_ZNK6Assimp3FBX5Token3endEv(ptr noundef nonnull align 8 dereferenceable(36) %this) #0 comdat align 2 {
entry:
  %this.addr = alloca ptr, align 8
  store ptr %this, ptr %this.addr, align 8
  %this1 = load ptr, ptr %this.addr, align 8
  %send = getelementptr inbounds %"class.Assimp::FBX::Token", ptr %this1, i32 0, i32 1
  %0 = load ptr, ptr %send, align 8
  ret ptr %0
}

; Function Attrs: mustprogress nounwind uwtable
define linkonce_odr hidden noundef ptr @_ZNK6Assimp3FBX5Token5beginEv(ptr noundef nonnull align 8 dereferenceable(36) %this) #0 comdat align 2 {
entry:
  %this.addr = alloca ptr, align 8
  store ptr %this, ptr %this.addr, align 8
  %this1 = load ptr, ptr %this.addr, align 8
  %sbegin = getelementptr inbounds %"class.Assimp::FBX::Token", ptr %this1, i32 0, i32 0
  %0 = load ptr, ptr %sbegin, align 8
  ret ptr %0
}

; Function Attrs: mustprogress nounwind uwtable
define linkonce_odr hidden noundef zeroext i1 @_ZNK6Assimp3FBX5Token8IsBinaryEv(ptr noundef nonnull align 8 dereferenceable(36) %this) #0 comdat align 2 {
entry:
  %this.addr = alloca ptr, align 8
  store ptr %this, ptr %this.addr, align 8
  %this1 = load ptr, ptr %this.addr, align 8
  %column = getelementptr inbounds %"class.Assimp::FBX::Token", ptr %this1, i32 0, i32 5
  %0 = load i32, ptr %column, align 8
  %cmp = icmp eq i32 %0, -1
  ret i1 %cmp
}

; Function Attrs: mustprogress nounwind uwtable
define linkonce_odr hidden noundef i32 @_ZNK6Assimp3FBX5Token4TypeEv(ptr noundef nonnull align 8 dereferenceable(36) %this) #0 comdat align 2 {
entry:
  %this.addr = alloca ptr, align 8
  store ptr %this, ptr %this.addr, align 8
  %this1 = load ptr, ptr %this.addr, align 8
  %type = getelementptr inbounds %"class.Assimp::FBX::Token", ptr %this1, i32 0, i32 2
  %0 = load i32, ptr %type, align 8
  ret i32 %0
}

; Function Attrs: mustprogress uwtable
define hidden noundef i64 @_ZN6Assimp3FBX15ParseTokenAsDimERKNS0_5TokenERPKc(ptr noundef nonnull align 8 dereferenceable(36) %t, ptr noundef nonnull align 8 dereferenceable(8) %err_out) #6 {
entry:
  %retval = alloca i64, align 8
  %t.addr = alloca ptr, align 8
  %err_out.addr = alloca ptr, align 8
  %data = alloca ptr, align 8
  %id = alloca i64, align 8
  %length = alloca i32, align 4
  %out = alloca ptr, align 8
  %id21 = alloca i64, align 8
  store ptr %t, ptr %t.addr, align 8
  store ptr %err_out, ptr %err_out.addr, align 8
  %0 = load ptr, ptr %err_out.addr, align 8
  store ptr null, ptr %0, align 8
  %1 = load ptr, ptr %t.addr, align 8
  %call = call noundef i32 @_ZNK6Assimp3FBX5Token4TypeEv(ptr noundef nonnull align 8 dereferenceable(36) %1)
  %cmp = icmp ne i32 %call, 2
  br i1 %cmp, label %if.then, label %if.end

if.then:                                          ; preds = %entry
  %2 = load ptr, ptr %err_out.addr, align 8
  store ptr @.str.9, ptr %2, align 8
  store i64 0, ptr %retval, align 8
  br label %return

if.end:                                           ; preds = %entry
  %3 = load ptr, ptr %t.addr, align 8
  %call1 = call noundef zeroext i1 @_ZNK6Assimp3FBX5Token8IsBinaryEv(ptr noundef nonnull align 8 dereferenceable(36) %3)
  br i1 %call1, label %if.then2, label %if.end9

if.then2:                                         ; preds = %if.end
  %4 = load ptr, ptr %t.addr, align 8
  %call3 = call noundef ptr @_ZNK6Assimp3FBX5Token5beginEv(ptr noundef nonnull align 8 dereferenceable(36) %4)
  store ptr %call3, ptr %data, align 8
  %5 = load ptr, ptr %data, align 8
  %arrayidx = getelementptr inbounds i8, ptr %5, i64 0
  %6 = load i8, ptr %arrayidx, align 1
  %conv = sext i8 %6 to i32
  %cmp4 = icmp ne i32 %conv, 76
  br i1 %cmp4, label %if.then5, label %if.end6

if.then5:                                         ; preds = %if.then2
  %7 = load ptr, ptr %err_out.addr, align 8
  store ptr @.str.10, ptr %7, align 8
  store i64 0, ptr %retval, align 8
  br label %return

if.end6:                                          ; preds = %if.then2
  %8 = load ptr, ptr %data, align 8
  %add.ptr = getelementptr inbounds i8, ptr %8, i64 1
  %9 = load ptr, ptr %t.addr, align 8
  %call7 = call noundef ptr @_ZNK6Assimp3FBX5Token3endEv(ptr noundef nonnull align 8 dereferenceable(36) %9)
  %call8 = call noundef i64 @_ZN12_GLOBAL__N_19SafeParseImEET_PKcS3_(ptr noundef %add.ptr, ptr noundef %call7)
  store i64 %call8, ptr %id, align 8
  %10 = load i64, ptr %id, align 8
  store i64 %10, ptr %retval, align 8
  br label %return

if.end9:                                          ; preds = %if.end
  %11 = load ptr, ptr %t.addr, align 8
  %call10 = call noundef ptr @_ZNK6Assimp3FBX5Token5beginEv(ptr noundef nonnull align 8 dereferenceable(36) %11)
  %12 = load i8, ptr %call10, align 1
  %conv11 = sext i8 %12 to i32
  %cmp12 = icmp ne i32 %conv11, 42
  br i1 %cmp12, label %if.then13, label %if.end14

if.then13:                                        ; preds = %if.end9
  %13 = load ptr, ptr %err_out.addr, align 8
  store ptr @.str.12, ptr %13, align 8
  store i64 0, ptr %retval, align 8
  br label %return

if.end14:                                         ; preds = %if.end9
  %14 = load ptr, ptr %t.addr, align 8
  %call15 = call noundef ptr @_ZNK6Assimp3FBX5Token3endEv(ptr noundef nonnull align 8 dereferenceable(36) %14)
  %15 = load ptr, ptr %t.addr, align 8
  %call16 = call noundef ptr @_ZNK6Assimp3FBX5Token5beginEv(ptr noundef nonnull align 8 dereferenceable(36) %15)
  %sub.ptr.lhs.cast = ptrtoint ptr %call15 to i64
  %sub.ptr.rhs.cast = ptrtoint ptr %call16 to i64
  %sub.ptr.sub = sub i64 %sub.ptr.lhs.cast, %sub.ptr.rhs.cast
  %conv17 = trunc i64 %sub.ptr.sub to i32
  store i32 %conv17, ptr %length, align 4
  %16 = load i32, ptr %length, align 4
  %cmp18 = icmp eq i32 %16, 0
  br i1 %cmp18, label %if.then19, label %if.end20

if.then19:                                        ; preds = %if.end14
  %17 = load ptr, ptr %err_out.addr, align 8
  store ptr @.str.13, ptr %17, align 8
  store i64 0, ptr %retval, align 8
  br label %return

if.end20:                                         ; preds = %if.end14
  store ptr null, ptr %out, align 8
  %18 = load ptr, ptr %t.addr, align 8
  %call22 = call noundef ptr @_ZNK6Assimp3FBX5Token5beginEv(ptr noundef nonnull align 8 dereferenceable(36) %18)
  %add.ptr23 = getelementptr inbounds i8, ptr %call22, i64 1
  %call24 = call noundef i64 @_ZN6Assimp12strtoul10_64I17DeadlyImportErrorEEmPKcPS3_Pj(ptr noundef %add.ptr23, ptr noundef %out, ptr noundef %length)
  store i64 %call24, ptr %id21, align 8
  %19 = load ptr, ptr %out, align 8
  %20 = load ptr, ptr %t.addr, align 8
  %call25 = call noundef ptr @_ZNK6Assimp3FBX5Token3endEv(ptr noundef nonnull align 8 dereferenceable(36) %20)
  %cmp26 = icmp ugt ptr %19, %call25
  br i1 %cmp26, label %if.then27, label %if.end28

if.then27:                                        ; preds = %if.end20
  %21 = load ptr, ptr %err_out.addr, align 8
  store ptr @.str.14, ptr %21, align 8
  store i64 0, ptr %retval, align 8
  br label %return

if.end28:                                         ; preds = %if.end20
  %22 = load i64, ptr %id21, align 8
  store i64 %22, ptr %retval, align 8
  br label %return

return:                                           ; preds = %if.end28, %if.then27, %if.then19, %if.then13, %if.end6, %if.then5, %if.then
  %23 = load i64, ptr %retval, align 8
  ret i64 %23
}